; Function Attrs: alwaysinline norecurse nounwind uwtable
define internal void @_ZNK4ncnn11Packing_x867forwardERKNS_3MatERS1_RKNS_6OptionE.omp_outlined.2(ptr noalias noundef readonly captures(none) %0, ptr noalias readnone captures(none) %1, ptr noundef nonnull readonly align 4 captures(none) dereferenceable(4) %2, ptr noundef nonnull readonly align 8 captures(none) dereferenceable(72) %3, ptr noundef nonnull readonly align 8 captures(none) dereferenceable(72) %4, ptr noundef nonnull readonly align 4 captures(none) dereferenceable(4) %5) #7 personality ptr @__gxx_personality_v0 {
  %7 = alloca i32, align 4
  %8 = alloca i32, align 4
  %9 = alloca i32, align 4
  %10 = alloca i32, align 4
  %11 = load i32, ptr %2, align 4, !tbaa !42
  %12 = icmp sgt i32 %11, 0
  br i1 %12, label %13, label %87

13:                                               ; preds = %6
  %14 = add nsw i32 %11, -1
  call void @llvm.lifetime.start.p0(i64 4, ptr nonnull %7) #6
  store i32 0, ptr %7, align 4, !tbaa !42
  call void @llvm.lifetime.start.p0(i64 4, ptr nonnull %8) #6
  store i32 %14, ptr %8, align 4, !tbaa !42
  call void @llvm.lifetime.start.p0(i64 4, ptr nonnull %9) #6
  store i32 1, ptr %9, align 4, !tbaa !42
  call void @llvm.lifetime.start.p0(i64 4, ptr nonnull %10) #6
  store i32 0, ptr %10, align 4, !tbaa !42
  %15 = load i32, ptr %0, align 4, !tbaa !42
  call void @__kmpc_for_static_init_4(ptr nonnull @1, i32 %15, i32 34, ptr nonnull %10, ptr nonnull %7, ptr nonnull %8, ptr nonnull %9, i32 1, i32 1)
  %16 = load i32, ptr %8, align 4, !tbaa !42
  %17 = call i32 @llvm.smin.i32(i32 %16, i32 %14)
  store i32 %17, ptr %8, align 4, !tbaa !42
  %18 = load i32, ptr %7, align 4, !tbaa !42
  %.not70 = icmp sgt i32 %18, %17
  br i1 %.not70, label %._crit_edge74, label %.lr.ph73

.lr.ph73:                                         ; preds = %13
  %19 = load ptr, ptr %3, align 8, !tbaa !33
  %20 = getelementptr inbounds nuw i8, ptr %3, i64 44
  %21 = load i32, ptr %20, align 4, !tbaa !38
  %22 = sext i32 %21 to i64
  %23 = getelementptr inbounds nuw i8, ptr %3, i64 16
  %24 = load i64, ptr %23, align 8, !tbaa !13
  %25 = mul i64 %24, %22
  %26 = load ptr, ptr %4, align 8, !tbaa !33
  %27 = getelementptr inbounds nuw i8, ptr %4, i64 44
  %28 = load i32, ptr %27, align 4, !tbaa !38
  %29 = sext i32 %28 to i64
  %30 = getelementptr inbounds nuw i8, ptr %4, i64 16
  %31 = load i64, ptr %30, align 8, !tbaa !13
  %factor.op.mul = mul i64 %31, %29
  %32 = load i32, ptr %5, align 4, !tbaa !42
  %33 = icmp sgt i32 %32, 0
  br i1 %33, label %.lr.ph.us.preheader, label %._crit_edge74

.lr.ph.us.preheader:                              ; preds = %.lr.ph73
  %34 = sext i32 %18 to i64
  %35 = add nsw i32 %17, 1
  br label %.lr.ph.us

.lr.ph.us:                                        ; preds = %.lr.ph.us.preheader, %._crit_edge.us
  %indvars.iv = phi i64 [ %34, %.lr.ph.us.preheader ], [ %indvars.iv.next, %._crit_edge.us ]
  %36 = shl nsw i64 %indvars.iv, 3
  %37 = mul i64 %25, %36
  %38 = getelementptr inbounds nuw i8, ptr %19, i64 %37
  %39 = or disjoint i64 %36, 1
  %40 = mul i64 %25, %39
  %41 = getelementptr inbounds nuw i8, ptr %19, i64 %40
  %42 = or disjoint i64 %36, 2
  %43 = mul i64 %25, %42
  %44 = getelementptr inbounds nuw i8, ptr %19, i64 %43
  %45 = or disjoint i64 %36, 3
  %46 = mul i64 %25, %45
  %47 = getelementptr inbounds nuw i8, ptr %19, i64 %46
  %48 = or disjoint i64 %36, 4
  %49 = mul i64 %25, %48
  %50 = getelementptr inbounds nuw i8, ptr %19, i64 %49
  %51 = or disjoint i64 %36, 5
  %52 = mul i64 %25, %51
  %53 = getelementptr inbounds nuw i8, ptr %19, i64 %52
  %54 = or disjoint i64 %36, 6
  %55 = mul i64 %25, %54
  %56 = getelementptr inbounds nuw i8, ptr %19, i64 %55
  %57 = or disjoint i64 %36, 7
  %58 = mul i64 %25, %57
  %59 = getelementptr inbounds nuw i8, ptr %19, i64 %58
  %.reass.us = mul i64 %factor.op.mul, %indvars.iv
  %60 = getelementptr inbounds nuw i8, ptr %26, i64 %.reass.us
  br label %61

61:                                               ; preds = %.lr.ph.us, %61
  %.069.us = phi i32 [ 0, %.lr.ph.us ], [ %86, %61 ]
  %.05068.us = phi ptr [ %60, %.lr.ph.us ], [ %85, %61 ]
  %.05167.us = phi ptr [ %59, %.lr.ph.us ], [ %82, %61 ]
  %.05266.us = phi ptr [ %56, %.lr.ph.us ], [ %79, %61 ]
  %.05365.us = phi ptr [ %53, %.lr.ph.us ], [ %76, %61 ]
  %.05464.us = phi ptr [ %50, %.lr.ph.us ], [ %73, %61 ]
  %.05563.us = phi ptr [ %47, %.lr.ph.us ], [ %70, %61 ]
  %.05662.us = phi ptr [ %44, %.lr.ph.us ], [ %67, %61 ]
  %.05761.us = phi ptr [ %41, %.lr.ph.us ], [ %64, %61 ]
  %.05860.us = phi ptr [ %38, %.lr.ph.us ], [ %62, %61 ]
  %62 = getelementptr inbounds nuw i8, ptr %.05860.us, i64 4
  %63 = load float, ptr %.05860.us, align 4, !tbaa !50
  store float %63, ptr %.05068.us, align 4, !tbaa !50
  %64 = getelementptr inbounds nuw i8, ptr %.05761.us, i64 4
  %65 = load float, ptr %.05761.us, align 4, !tbaa !50
  %66 = getelementptr inbounds nuw i8, ptr %.05068.us, i64 4
  store float %65, ptr %66, align 4, !tbaa !50
  %67 = getelementptr inbounds nuw i8, ptr %.05662.us, i64 4
  %68 = load float, ptr %.05662.us, align 4, !tbaa !50
  %69 = getelementptr inbounds nuw i8, ptr %.05068.us, i64 8
  store float %68, ptr %69, align 4, !tbaa !50
  %70 = getelementptr inbounds nuw i8, ptr %.05563.us, i64 4
  %71 = load float, ptr %.05563.us, align 4, !tbaa !50
  %72 = getelementptr inbounds nuw i8, ptr %.05068.us, i64 12
  store float %71, ptr %72, align 4, !tbaa !50
  %73 = getelementptr inbounds nuw i8, ptr %.05464.us, i64 4
  %74 = load float, ptr %.05464.us, align 4, !tbaa !50
  %75 = getelementptr inbounds nuw i8, ptr %.05068.us, i64 16
  store float %74, ptr %75, align 4, !tbaa !50
  %76 = getelementptr inbounds nuw i8, ptr %.05365.us, i64 4
  %77 = load float, ptr %.05365.us, align 4, !tbaa !50
  %78 = getelementptr inbounds nuw i8, ptr %.05068.us, i64 20
  store float %77, ptr %78, align 4, !tbaa !50
  %79 = getelementptr inbounds nuw i8, ptr %.05266.us, i64 4
  %80 = load float, ptr %.05266.us, align 4, !tbaa !50
  %81 = getelementptr inbounds nuw i8, ptr %.05068.us, i64 24
  store float %80, ptr %81, align 4, !tbaa !50
  %82 = getelementptr inbounds nuw i8, ptr %.05167.us, i64 4
  %83 = load float, ptr %.05167.us, align 4, !tbaa !50
  %84 = getelementptr inbounds nuw i8, ptr %.05068.us, i64 28
  store float %83, ptr %84, align 4, !tbaa !50
  %85 = getelementptr inbounds nuw i8, ptr %.05068.us, i64 32
  %86 = add nuw nsw i32 %.069.us, 1
  %exitcond.not = icmp eq i32 %86, %32
  br i1 %exitcond.not, label %._crit_edge.us, label %61, !llvm.loop !57

._crit_edge.us:                                   ; preds = %61
  %indvars.iv.next = add nsw i64 %indvars.iv, 1
  %lftr.wideiv = trunc i64 %indvars.iv.next to i32
  %exitcond77.not = icmp eq i32 %35, %lftr.wideiv
  br i1 %exitcond77.not, label %._crit_edge74, label %.lr.ph.us

._crit_edge74:                                    ; preds = %._crit_edge.us, %.lr.ph73, %13
  call void @__kmpc_for_static_fini(ptr nonnull @1, i32 %15)
  call void @llvm.lifetime.end.p0(i64 4, ptr nonnull %10) #6
  call void @llvm.lifetime.end.p0(i64 4, ptr nonnull %9) #6
  call void @llvm.lifetime.end.p0(i64 4, ptr nonnull %8) #6
  call void @llvm.lifetime.end.p0(i64 4, ptr nonnull %7) #6
  br label %87

87:                                               ; preds = %._crit_edge74, %6
  ret void
}